; Function Attrs: mustprogress nounwind uwtable
define internal fastcc noundef zeroext i1 @_ZL18mayHaveSideEffectsRN4llvm12MachineInstrE(ptr noundef nonnull align 8 dereferenceable(70) %0) unnamed_addr #0 {
  %2 = tail call noundef zeroext i1 @_ZNK4llvm12MachineInstr14mayLoadOrStoreENS0_9QueryTypeE(ptr noundef nonnull align 8 dereferenceable(70) %0, i32 noundef 1)
  br i1 %2, label %61, label %3

3:                                                ; preds = %1
  %4 = getelementptr inbounds nuw i8, ptr %0, i64 44
  %5 = load i32, ptr %4, align 4
  %6 = and i32 %5, 12
  %7 = icmp eq i32 %6, 0
  %8 = and i32 %5, 4
  %9 = icmp ne i32 %8, 0
  %or.cond.i.i = or i1 %7, %9
  br i1 %or.cond.i.i, label %10, label %_ZNK4llvm12MachineInstr11hasPropertyEjNS0_9QueryTypeE.exit.i

10:                                               ; preds = %3
  %11 = getelementptr inbounds nuw i8, ptr %0, i64 16
  %12 = load ptr, ptr %11, align 8
  %13 = getelementptr inbounds nuw i8, ptr %12, i64 16
  %14 = load i64, ptr %13, align 8
  %15 = and i64 %14, 2097152
  %.not.i = icmp eq i64 %15, 0
  br i1 %.not.i, label %_ZNK4llvm12MachineInstr19mayRaiseFPExceptionEv.exit.thread, label %_ZNK4llvm12MachineInstr19mayRaiseFPExceptionEv.exit

_ZNK4llvm12MachineInstr11hasPropertyEjNS0_9QueryTypeE.exit.i: ; preds = %3
  %16 = tail call noundef zeroext i1 @_ZNK4llvm12MachineInstr19hasPropertyInBundleEmNS0_9QueryTypeE(ptr noundef nonnull align 8 dereferenceable(70) %0, i64 noundef 2097152, i32 noundef 1) #15
  br i1 %16, label %_ZNK4llvm12MachineInstr11hasPropertyEjNS0_9QueryTypeE.exit._crit_edge.i, label %_ZNK4llvm12MachineInstr19mayRaiseFPExceptionEv.exit.thread

_ZNK4llvm12MachineInstr11hasPropertyEjNS0_9QueryTypeE.exit._crit_edge.i: ; preds = %_ZNK4llvm12MachineInstr11hasPropertyEjNS0_9QueryTypeE.exit.i
  %.pre.i = load i32, ptr %4, align 4
  br label %_ZNK4llvm12MachineInstr19mayRaiseFPExceptionEv.exit

_ZNK4llvm12MachineInstr19mayRaiseFPExceptionEv.exit: ; preds = %10, %_ZNK4llvm12MachineInstr11hasPropertyEjNS0_9QueryTypeE.exit._crit_edge.i
  %17 = phi i32 [ %.pre.i, %_ZNK4llvm12MachineInstr11hasPropertyEjNS0_9QueryTypeE.exit._crit_edge.i ], [ %5, %10 ]
  %18 = and i32 %17, 16384
  %.not1.i = icmp eq i32 %18, 0
  br i1 %.not1.i, label %61, label %_ZNK4llvm12MachineInstr19mayRaiseFPExceptionEv.exit.thread

_ZNK4llvm12MachineInstr19mayRaiseFPExceptionEv.exit.thread: ; preds = %10, %_ZNK4llvm12MachineInstr11hasPropertyEjNS0_9QueryTypeE.exit.i, %_ZNK4llvm12MachineInstr19mayRaiseFPExceptionEv.exit
  %19 = tail call noundef zeroext i1 @_ZNK4llvm12MachineInstr23hasUnmodeledSideEffectsEv(ptr noundef nonnull align 8 dereferenceable(70) %0) #15
  br i1 %19, label %61, label %20

20:                                               ; preds = %_ZNK4llvm12MachineInstr19mayRaiseFPExceptionEv.exit.thread
  %21 = load i32, ptr %4, align 4
  %22 = and i32 %21, 12
  %23 = icmp eq i32 %22, 0
  %24 = and i32 %21, 4
  %25 = icmp ne i32 %24, 0
  %or.cond.i.i8 = or i1 %23, %25
  br i1 %or.cond.i.i8, label %26, label %_ZNK4llvm12MachineInstr12isTerminatorENS0_9QueryTypeE.exit

26:                                               ; preds = %20
  %27 = getelementptr inbounds nuw i8, ptr %0, i64 16
  %28 = load ptr, ptr %27, align 8
  %29 = getelementptr inbounds nuw i8, ptr %28, i64 16
  %30 = load i64, ptr %29, align 8
  %31 = and i64 %30, 512
  %.not = icmp eq i64 %31, 0
  br i1 %.not, label %33, label %61

_ZNK4llvm12MachineInstr12isTerminatorENS0_9QueryTypeE.exit: ; preds = %20
  %32 = tail call noundef zeroext i1 @_ZNK4llvm12MachineInstr19hasPropertyInBundleEmNS0_9QueryTypeE(ptr noundef nonnull align 8 dereferenceable(70) %0, i64 noundef 512, i32 noundef 1) #15
  br i1 %32, label %61, label %_ZNK4llvm12MachineInstr12isTerminatorENS0_9QueryTypeE.exit._crit_edge

_ZNK4llvm12MachineInstr12isTerminatorENS0_9QueryTypeE.exit._crit_edge: ; preds = %_ZNK4llvm12MachineInstr12isTerminatorENS0_9QueryTypeE.exit
  %.pre = load i32, ptr %4, align 4
  %.pre19 = and i32 %.pre, 12
  br label %33

33:                                               ; preds = %_ZNK4llvm12MachineInstr12isTerminatorENS0_9QueryTypeE.exit._crit_edge, %26
  %.pre-phi = phi i32 [ %.pre19, %_ZNK4llvm12MachineInstr12isTerminatorENS0_9QueryTypeE.exit._crit_edge ], [ %22, %26 ]
  %34 = phi i32 [ %.pre, %_ZNK4llvm12MachineInstr12isTerminatorENS0_9QueryTypeE.exit._crit_edge ], [ %21, %26 ]
  %35 = icmp eq i32 %.pre-phi, 0
  %36 = and i32 %34, 4
  %37 = icmp ne i32 %36, 0
  %or.cond.i.i10 = or i1 %35, %37
  br i1 %or.cond.i.i10, label %38, label %_ZNK4llvm12MachineInstr6isCallENS0_9QueryTypeE.exit

38:                                               ; preds = %33
  %39 = getelementptr inbounds nuw i8, ptr %0, i64 16
  %40 = load ptr, ptr %39, align 8
  %41 = getelementptr inbounds nuw i8, ptr %40, i64 16
  %42 = load i64, ptr %41, align 8
  %43 = and i64 %42, 128
  %.not16 = icmp eq i64 %43, 0
  br i1 %.not16, label %45, label %61

_ZNK4llvm12MachineInstr6isCallENS0_9QueryTypeE.exit: ; preds = %33
  %44 = tail call noundef zeroext i1 @_ZNK4llvm12MachineInstr19hasPropertyInBundleEmNS0_9QueryTypeE(ptr noundef nonnull align 8 dereferenceable(70) %0, i64 noundef 128, i32 noundef 1) #15
  br i1 %44, label %61, label %_ZNK4llvm12MachineInstr6isCallENS0_9QueryTypeE.exit._crit_edge

_ZNK4llvm12MachineInstr6isCallENS0_9QueryTypeE.exit._crit_edge: ; preds = %_ZNK4llvm12MachineInstr6isCallENS0_9QueryTypeE.exit
  %.pre18 = load i32, ptr %4, align 4
  %.pre20 = and i32 %.pre18, 12
  br label %45

45:                                               ; preds = %_ZNK4llvm12MachineInstr6isCallENS0_9QueryTypeE.exit._crit_edge, %38
  %.pre-phi21 = phi i32 [ %.pre20, %_ZNK4llvm12MachineInstr6isCallENS0_9QueryTypeE.exit._crit_edge ], [ %.pre-phi, %38 ]
  %46 = phi i32 [ %.pre18, %_ZNK4llvm12MachineInstr6isCallENS0_9QueryTypeE.exit._crit_edge ], [ %34, %38 ]
  %47 = icmp eq i32 %.pre-phi21, 0
  %48 = and i32 %46, 4
  %49 = icmp ne i32 %48, 0
  %or.cond.i.i13 = or i1 %47, %49
  br i1 %or.cond.i.i13, label %50, label %_ZNK4llvm12MachineInstr9isBarrierENS0_9QueryTypeE.exit

50:                                               ; preds = %45
  %51 = getelementptr inbounds nuw i8, ptr %0, i64 16
  %52 = load ptr, ptr %51, align 8
  %53 = getelementptr inbounds nuw i8, ptr %52, i64 16
  %54 = load i64, ptr %53, align 8
  %55 = and i64 %54, 256
  %.not17 = icmp eq i64 %55, 0
  br i1 %.not17, label %57, label %61

_ZNK4llvm12MachineInstr9isBarrierENS0_9QueryTypeE.exit: ; preds = %45
  %56 = tail call noundef zeroext i1 @_ZNK4llvm12MachineInstr19hasPropertyInBundleEmNS0_9QueryTypeE(ptr noundef nonnull align 8 dereferenceable(70) %0, i64 noundef 256, i32 noundef 1) #15
  br i1 %56, label %61, label %57

57:                                               ; preds = %50, %_ZNK4llvm12MachineInstr9isBarrierENS0_9QueryTypeE.exit
  %58 = tail call noundef zeroext i1 @_ZNK4llvm12MachineInstr8isBranchENS0_9QueryTypeE(ptr noundef nonnull align 8 dereferenceable(70) %0, i32 noundef 1)
  br i1 %58, label %61, label %59

59:                                               ; preds = %57
  %60 = tail call noundef zeroext i1 @_ZNK4llvm12MachineInstr8isReturnENS0_9QueryTypeE(ptr noundef nonnull align 8 dereferenceable(70) %0, i32 noundef 1)
  br label %61

61:                                               ; preds = %50, %38, %26, %59, %57, %_ZNK4llvm12MachineInstr9isBarrierENS0_9QueryTypeE.exit, %_ZNK4llvm12MachineInstr6isCallENS0_9QueryTypeE.exit, %_ZNK4llvm12MachineInstr12isTerminatorENS0_9QueryTypeE.exit, %_ZNK4llvm12MachineInstr19mayRaiseFPExceptionEv.exit.thread, %_ZNK4llvm12MachineInstr19mayRaiseFPExceptionEv.exit, %1
  %62 = phi i1 [ true, %57 ], [ true, %_ZNK4llvm12MachineInstr9isBarrierENS0_9QueryTypeE.exit ], [ true, %_ZNK4llvm12MachineInstr6isCallENS0_9QueryTypeE.exit ], [ true, %_ZNK4llvm12MachineInstr12isTerminatorENS0_9QueryTypeE.exit ], [ true, %_ZNK4llvm12MachineInstr19mayRaiseFPExceptionEv.exit.thread ], [ true, %_ZNK4llvm12MachineInstr19mayRaiseFPExceptionEv.exit ], [ true, %1 ], [ %60, %59 ], [ true, %26 ], [ true, %38 ], [ true, %50 ]
  ret i1 %62
}